target datalayout = "e-m:e-p270:32:32-p271:32:32-p272:64:64-i64:64-i128:128-f80:128-n8:16:32:64-S128"
target triple = "x86_64-pc-linux-gnu"

%struct.Vec_Int_t_ = type { i32, i32, ptr }
%struct.Aig_Man_t_ = type { ptr, ptr, ptr, ptr, ptr, ptr, ptr, %struct.Aig_Obj_t_, i32, i32, i32, i32, i32, i32, [7 x i32], i32, ptr, i32, ptr, i32, ptr, i32, i32, i32, ptr, i32, i32, i32, i32, i32, ptr, ptr, i32, ptr, ptr, i32, ptr, ptr, i32, i32, i32, ptr, ptr, ptr, ptr, ptr, ptr, ptr, ptr, ptr, ptr, ptr, ptr, ptr, ptr, i32, ptr, ptr, ptr, ptr, i32, i64, i64, i64, ptr, ptr }
%struct.Aig_Obj_t_ = type { %union.anon, ptr, ptr, i64, i32, i32, %union.anon.0 }
%union.anon = type { ptr }
%union.anon.0 = type { ptr }

; Function Attrs: nounwind uwtable
define internal void @Vec_IntFree(ptr noundef %0) #0 {
  %2 = alloca ptr, align 8
  store ptr %0, ptr %2, align 8
  %3 = load ptr, ptr %2, align 8
  %4 = getelementptr inbounds %struct.Vec_Int_t_, ptr %3, i32 0, i32 2
  %5 = load ptr, ptr %4, align 8
  %6 = icmp ne ptr %5, null
  br i1 %6, label %7, label %13

7:                                                ; preds = %1
  %8 = load ptr, ptr %2, align 8
  %9 = getelementptr inbounds %struct.Vec_Int_t_, ptr %8, i32 0, i32 2
  %10 = load ptr, ptr %9, align 8
  call void @free(ptr noundef %10) #10
  %11 = load ptr, ptr %2, align 8
  %12 = getelementptr inbounds %struct.Vec_Int_t_, ptr %11, i32 0, i32 2
  store ptr null, ptr %12, align 8
  br label %14

13:                                               ; preds = %1
  br label %14

14:                                               ; preds = %13, %7
  %15 = load ptr, ptr %2, align 8
  %16 = icmp ne ptr %15, null
  br i1 %16, label %17, label %19

17:                                               ; preds = %14
  %18 = load ptr, ptr %2, align 8
  call void @free(ptr noundef %18) #10
  store ptr null, ptr %2, align 8
  br label %20

19:                                               ; preds = %14
  br label %20

20:                                               ; preds = %19, %17
  ret void
}

; Function Attrs: nounwind uwtable
define ptr @Abc_NtkDarLatchSweep(ptr noundef %0, i32 noundef %1, i32 noundef %2, i32 noundef %3, i32 noundef %4, i32 noundef %5, i32 noundef %6, i32 noundef %7, i32 noundef %8) #0 {
  %10 = alloca ptr, align 8
  %11 = alloca ptr, align 8
  %12 = alloca i32, align 4
  %13 = alloca i32, align 4
  %14 = alloca i32, align 4
  %15 = alloca i32, align 4
  %16 = alloca i32, align 4
  %17 = alloca i32, align 4
  %18 = alloca i32, align 4
  %19 = alloca i32, align 4
  %20 = alloca ptr, align 8
  %21 = alloca ptr, align 8
  %22 = alloca ptr, align 8
  store ptr %0, ptr %11, align 8
  store i32 %1, ptr %12, align 4
  store i32 %2, ptr %13, align 4
  store i32 %3, ptr %14, align 4
  store i32 %4, ptr %15, align 4
  store i32 %5, ptr %16, align 4
  store i32 %6, ptr %17, align 4
  store i32 %7, ptr %18, align 4
  store i32 %8, ptr %19, align 4
  %23 = load ptr, ptr %11, align 8
  %24 = call ptr @Abc_NtkToDar(ptr noundef %23, i32 noundef 0, i32 noundef 1)
  store ptr %24, ptr %21, align 8
  %25 = load ptr, ptr %21, align 8
  %26 = icmp eq ptr %25, null
  br i1 %26, label %27, label %28

27:                                               ; preds = %9
  store ptr null, ptr %10, align 8
  br label %90

28:                                               ; preds = %9
  %29 = load i32, ptr %14, align 4
  %30 = icmp ne i32 %29, 0
  br i1 %30, label %31, label %62

31:                                               ; preds = %28
  %32 = load ptr, ptr %21, align 8
  %33 = call i32 @Aig_ManSeqCleanup(ptr noundef %32)
  %34 = load i32, ptr %12, align 4
  %35 = icmp ne i32 %34, 0
  br i1 %35, label %36, label %49

36:                                               ; preds = %31
  %37 = load ptr, ptr %21, align 8
  %38 = getelementptr inbounds %struct.Aig_Man_t_, ptr %37, i32 0, i32 8
  %39 = load i32, ptr %38, align 8
  %40 = icmp ne i32 %39, 0
  br i1 %40, label %41, label %49

41:                                               ; preds = %36
  %42 = load ptr, ptr %21, align 8
  %43 = load i32, ptr %15, align 4
  %44 = load i32, ptr %16, align 4
  %45 = load i32, ptr %17, align 4
  %46 = load i32, ptr %18, align 4
  %47 = load i32, ptr %19, align 4
  %48 = call ptr @Aig_ManConstReduce(ptr noundef %42, i32 noundef %43, i32 noundef %44, i32 noundef %45, i32 noundef %46, i32 noundef %47)
  store ptr %48, ptr %21, align 8
  br label %49

49:                                               ; preds = %41, %36, %31
  %50 = load i32, ptr %13, align 4
  %51 = icmp ne i32 %50, 0
  br i1 %51, label %52, label %61

52:                                               ; preds = %49
  %53 = load ptr, ptr %21, align 8
  %54 = getelementptr inbounds %struct.Aig_Man_t_, ptr %53, i32 0, i32 8
  %55 = load i32, ptr %54, align 8
  %56 = icmp ne i32 %55, 0
  br i1 %56, label %57, label %61

57:                                               ; preds = %52
  %58 = load ptr, ptr %21, align 8
  %59 = load i32, ptr %18, align 4
  %60 = call ptr @Aig_ManReduceLaches(ptr noundef %58, i32 noundef %59)
  store ptr %60, ptr %21, align 8
  br label %61

61:                                               ; preds = %57, %52, %49
  br label %84

62:                                               ; preds = %28
  %63 = load ptr, ptr %21, align 8
  %64 = getelementptr inbounds %struct.Aig_Man_t_, ptr %63, i32 0, i32 49
  %65 = load ptr, ptr %64, align 8
  %66 = icmp ne ptr %65, null
  br i1 %66, label %67, label %71

67:                                               ; preds = %62
  %68 = load ptr, ptr %21, align 8
  %69 = getelementptr inbounds %struct.Aig_Man_t_, ptr %68, i32 0, i32 49
  %70 = load ptr, ptr %69, align 8
  call void @Vec_IntFree(ptr noundef %70)
  br label %71

71:                                               ; preds = %67, %62
  %72 = load ptr, ptr %21, align 8
  %73 = getelementptr inbounds %struct.Aig_Man_t_, ptr %72, i32 0, i32 49
  store ptr null, ptr %73, align 8
  %74 = load ptr, ptr %21, align 8
  store ptr %74, ptr %22, align 8
  %75 = load i32, ptr %12, align 4
  %76 = load i32, ptr %13, align 4
  %77 = load i32, ptr %15, align 4
  %78 = load i32, ptr %16, align 4
  %79 = load i32, ptr %17, align 4
  %80 = load i32, ptr %18, align 4
  %81 = load i32, ptr %19, align 4
  %82 = call ptr @Aig_ManScl(ptr noundef %74, i32 noundef %75, i32 noundef %76, i32 noundef %77, i32 noundef %78, i32 noundef %79, i32 noundef %80, i32 noundef %81)
  store ptr %82, ptr %21, align 8
  %83 = load ptr, ptr %22, align 8
  call void @Aig_ManStop(ptr noundef %83)
  br label %84

84:                                               ; preds = %71, %61
  %85 = load ptr, ptr %11, align 8
  %86 = load ptr, ptr %21, align 8
  %87 = call ptr @Abc_NtkFromDarSeqSweep(ptr noundef %85, ptr noundef %86)
  store ptr %87, ptr %20, align 8
  %88 = load ptr, ptr %21, align 8
  call void @Aig_ManStop(ptr noundef %88)
  %89 = load ptr, ptr %20, align 8
  store ptr %89, ptr %10, align 8
  br label %90

90:                                               ; preds = %84, %27
  %91 = load ptr, ptr %10, align 8
  ret ptr %91
}