; Function Attrs: nounwind uwtable
define ptr @Abc_NtkDarLatchSweep(ptr noundef %0, i32 noundef %1, i32 noundef %2, i32 noundef %3, i32 noundef %4, i32 noundef %5, i32 noundef %6, i32 noundef %7, i32 noundef %8) local_unnamed_addr #1 {
  %10 = tail call ptr @Abc_NtkToDar(ptr noundef %0, i32 noundef 0, i32 noundef 1)
  %11 = icmp eq ptr %10, null
  br i1 %11, label %37, label %12

12:                                               ; preds = %9
  %.not = icmp eq i32 %3, 0
  br i1 %.not, label %26, label %13

13:                                               ; preds = %12
  %14 = tail call i32 @Aig_ManSeqCleanup(ptr noundef nonnull %10) #19
  %.not36 = icmp eq i32 %1, 0
  br i1 %.not36, label %20, label %15

15:                                               ; preds = %13
  %16 = getelementptr inbounds nuw i8, ptr %10, i64 104
  %17 = load i32, ptr %16, align 8
  %.not37 = icmp eq i32 %17, 0
  br i1 %.not37, label %20, label %18

18:                                               ; preds = %15
  %19 = tail call ptr @Aig_ManConstReduce(ptr noundef nonnull %10, i32 noundef %4, i32 noundef %5, i32 noundef %6, i32 noundef %7, i32 noundef %8) #19
  br label %20

20:                                               ; preds = %18, %15, %13
  %.032 = phi ptr [ %19, %18 ], [ %10, %15 ], [ %10, %13 ]
  %.not38 = icmp eq i32 %2, 0
  br i1 %.not38, label %35, label %21

21:                                               ; preds = %20
  %22 = getelementptr inbounds nuw i8, ptr %.032, i64 104
  %23 = load i32, ptr %22, align 8
  %.not39 = icmp eq i32 %23, 0
  br i1 %.not39, label %35, label %24

24:                                               ; preds = %21
  %25 = tail call ptr @Aig_ManReduceLaches(ptr noundef nonnull %.032, i32 noundef %7) #19
  br label %35

26:                                               ; preds = %12
  %27 = getelementptr inbounds nuw i8, ptr %10, i64 392
  %28 = load ptr, ptr %27, align 8
  %.not35 = icmp eq ptr %28, null
  br i1 %.not35, label %33, label %29

29:                                               ; preds = %26
  %30 = getelementptr inbounds nuw i8, ptr %28, i64 8
  %31 = load ptr, ptr %30, align 8
  %.not.i = icmp eq ptr %31, null
  br i1 %.not.i, label %Vec_IntFree.exit, label %32

32:                                               ; preds = %29
  tail call void @free(ptr noundef nonnull %31) #19
  br label %Vec_IntFree.exit

Vec_IntFree.exit:                                 ; preds = %29, %32
  tail call void @free(ptr noundef nonnull %28) #19
  br label %33

33:                                               ; preds = %Vec_IntFree.exit, %26
  store ptr null, ptr %27, align 8
  %34 = tail call ptr @Aig_ManScl(ptr noundef nonnull %10, i32 noundef %1, i32 noundef %2, i32 noundef %4, i32 noundef %5, i32 noundef %6, i32 noundef %7, i32 noundef %8) #19
  tail call void @Aig_ManStop(ptr noundef nonnull %10) #19
  br label %35

35:                                               ; preds = %20, %21, %24, %33
  %.1 = phi ptr [ %25, %24 ], [ %.032, %21 ], [ %.032, %20 ], [ %34, %33 ]
  %36 = tail call ptr @Abc_NtkFromDarSeqSweep(ptr noundef %0, ptr noundef %.1)
  tail call void @Aig_ManStop(ptr noundef %.1) #19
  br label %37

37:                                               ; preds = %9, %35
  %.0 = phi ptr [ %36, %35 ], [ null, %9 ]
  ret ptr %.0
}